; Function Attrs: mustprogress uwtable
define void @_ZNK13sentencepiece25MultiFileSentenceIterator6statusEv(ptr dead_on_unwind noalias writable sret(%"class.sentencepiece::util::Status") align 8 %0, ptr nocapture noundef nonnull readonly align 8 dereferenceable(88) %1) unnamed_addr #3 align 2 personality ptr @__gxx_personality_v0 {
  %3 = alloca %"class.std::__cxx11::basic_string", align 8
  %4 = alloca %"class.sentencepiece::util::StatusBuilder", align 8
  %5 = getelementptr inbounds i8, ptr %1, i64 80
  %6 = load ptr, ptr %5, align 8
  %.not = icmp eq ptr %6, null
  br i1 %.not, label %7, label %24

7:                                                ; preds = %2
  store i32 13, ptr %4, align 8
  %8 = getelementptr inbounds i8, ptr %4, i64 8
  call void @_ZNSt7__cxx1119basic_ostringstreamIcSt11char_traitsIcESaIcEEC1Ev(ptr noundef nonnull align 8 dereferenceable(112) %8)
  %9 = invoke noundef nonnull align 8 dereferenceable(8) ptr @_ZStlsISt11char_traitsIcEERSt13basic_ostreamIcT_ES5_PKc(ptr noundef nonnull align 8 dereferenceable(8) %8, ptr noundef nonnull @.str)
          to label %_ZN13sentencepiece4util13StatusBuilderlsIA25_cEERS1_RKT_.exit unwind label %22

_ZN13sentencepiece4util13StatusBuilderlsIA25_cEERS1_RKT_.exit: ; preds = %7
  %10 = invoke noundef nonnull align 8 dereferenceable(8) ptr @_ZStlsISt11char_traitsIcEERSt13basic_ostreamIcT_ES5_PKc(ptr noundef nonnull align 8 dereferenceable(8) %8, ptr noundef nonnull @.str.1)
          to label %_ZN13sentencepiece4util13StatusBuilderlsIA2_cEERS1_RKT_.exit unwind label %22

_ZN13sentencepiece4util13StatusBuilderlsIA2_cEERS1_RKT_.exit: ; preds = %_ZN13sentencepiece4util13StatusBuilderlsIA25_cEERS1_RKT_.exit
  %11 = invoke noundef nonnull align 8 dereferenceable(8) ptr @_ZNSolsEi(ptr noundef nonnull align 8 dereferenceable(8) %8, i32 noundef 175)
          to label %_ZN13sentencepiece4util13StatusBuilderlsIiEERS1_RKT_.exit unwind label %22

_ZN13sentencepiece4util13StatusBuilderlsIiEERS1_RKT_.exit: ; preds = %_ZN13sentencepiece4util13StatusBuilderlsIA2_cEERS1_RKT_.exit
  %12 = invoke noundef nonnull align 8 dereferenceable(8) ptr @_ZStlsISt11char_traitsIcEERSt13basic_ostreamIcT_ES5_PKc(ptr noundef nonnull align 8 dereferenceable(8) %8, ptr noundef nonnull @.str.2)
          to label %_ZN13sentencepiece4util13StatusBuilderlsIA4_cEERS1_RKT_.exit unwind label %22

_ZN13sentencepiece4util13StatusBuilderlsIA4_cEERS1_RKT_.exit: ; preds = %_ZN13sentencepiece4util13StatusBuilderlsIiEERS1_RKT_.exit
  %13 = invoke noundef nonnull align 8 dereferenceable(8) ptr @_ZStlsISt11char_traitsIcEERSt13basic_ostreamIcT_ES5_PKc(ptr noundef nonnull align 8 dereferenceable(8) %8, ptr noundef nonnull @.str.3)
          to label %_ZN13sentencepiece4util13StatusBuilderlsIA4_cEERS1_RKT_.exit2 unwind label %22

_ZN13sentencepiece4util13StatusBuilderlsIA4_cEERS1_RKT_.exit2: ; preds = %_ZN13sentencepiece4util13StatusBuilderlsIA4_cEERS1_RKT_.exit
  %14 = invoke noundef nonnull align 8 dereferenceable(8) ptr @_ZStlsISt11char_traitsIcEERSt13basic_ostreamIcT_ES5_PKc(ptr noundef nonnull align 8 dereferenceable(8) %8, ptr noundef nonnull @.str.4)
          to label %_ZN13sentencepiece4util13StatusBuilderlsIA3_cEERS1_RKT_.exit unwind label %22

_ZN13sentencepiece4util13StatusBuilderlsIA3_cEERS1_RKT_.exit: ; preds = %_ZN13sentencepiece4util13StatusBuilderlsIA4_cEERS1_RKT_.exit2
  call void @llvm.lifetime.start.p0(i64 32, ptr nonnull %3)
  %15 = load i32, ptr %4, align 8, !noalias !7
  invoke void @_ZNKSt7__cxx1119basic_ostringstreamIcSt11char_traitsIcESaIcEE3strEv(ptr dead_on_unwind nonnull writable sret(%"class.std::__cxx11::basic_string") align 8 %3, ptr noundef nonnull align 8 dereferenceable(112) %8)
          to label %.noexc unwind label %22

.noexc:                                           ; preds = %_ZN13sentencepiece4util13StatusBuilderlsIA3_cEERS1_RKT_.exit
  %16 = call { i64, ptr } @_ZNKSt7__cxx1112basic_stringIcSt11char_traitsIcESaIcEEcvSt17basic_string_viewIcS2_EEv(ptr noundef nonnull align 8 dereferenceable(32) %3) #23, !noalias !7
  %17 = extractvalue { i64, ptr } %16, 0
  %18 = extractvalue { i64, ptr } %16, 1
  invoke void @_ZN13sentencepiece4util6StatusC1ENS0_10StatusCodeESt17basic_string_viewIcSt11char_traitsIcEE(ptr noundef nonnull align 8 dereferenceable(8) %0, i32 noundef %15, i64 %17, ptr %18)
          to label %21 unwind label %19

19:                                               ; preds = %.noexc
  %20 = landingpad { ptr, i32 }
          cleanup
  call void @_ZNSt7__cxx1112basic_stringIcSt11char_traitsIcESaIcEED1Ev(ptr noundef nonnull align 8 dereferenceable(32) %3) #23
  br label %.body

21:                                               ; preds = %.noexc
  call void @_ZNSt7__cxx1112basic_stringIcSt11char_traitsIcESaIcEED1Ev(ptr noundef nonnull align 8 dereferenceable(32) %3) #23
  call void @llvm.lifetime.end.p0(i64 32, ptr nonnull %3)
  call void @_ZNSt7__cxx1119basic_ostringstreamIcSt11char_traitsIcESaIcEED1Ev(ptr noundef nonnull align 8 dereferenceable(112) %8) #23
  br label %28

22:                                               ; preds = %_ZN13sentencepiece4util13StatusBuilderlsIA3_cEERS1_RKT_.exit, %_ZN13sentencepiece4util13StatusBuilderlsIA4_cEERS1_RKT_.exit2, %_ZN13sentencepiece4util13StatusBuilderlsIA4_cEERS1_RKT_.exit, %_ZN13sentencepiece4util13StatusBuilderlsIiEERS1_RKT_.exit, %_ZN13sentencepiece4util13StatusBuilderlsIA2_cEERS1_RKT_.exit, %_ZN13sentencepiece4util13StatusBuilderlsIA25_cEERS1_RKT_.exit, %7
  %23 = landingpad { ptr, i32 }
          cleanup
  br label %.body

.body:                                            ; preds = %19, %22
  %eh.lpad-body = phi { ptr, i32 } [ %23, %22 ], [ %20, %19 ]
  call void @_ZNSt7__cxx1119basic_ostringstreamIcSt11char_traitsIcESaIcEED1Ev(ptr noundef nonnull align 8 dereferenceable(112) %8) #23
  resume { ptr, i32 } %eh.lpad-body

24:                                               ; preds = %2
  %25 = load ptr, ptr %6, align 8
  %26 = getelementptr inbounds i8, ptr %25, i64 16
  %27 = load ptr, ptr %26, align 8
  tail call void %27(ptr dead_on_unwind writable sret(%"class.sentencepiece::util::Status") align 8 %0, ptr noundef nonnull align 8 dereferenceable(8) %6)
  br label %28

28:                                               ; preds = %24, %21
  ret void
}